target datalayout = "e-m:e-p270:32:32-p271:32:32-p272:64:64-i64:64-i128:128-f80:128-n8:16:32:64-S128"
target triple = "x86_64-pc-linux-gnu"

%union.EX_STYPE = type { ptr }
%struct.Expr_s = type { ptr, ptr, [10 x ptr], ptr, ptr, ptr, ptr, ptr, ptr, %struct.agxbuf, %union.EX_STYPE, %struct.Exid_s, [512 x i8], ptr, i32, i32, i32, i64, i64, i32 }
%struct.agxbuf = type { %union.anon.10 }
%union.anon.10 = type { %struct.anon.11 }
%struct.anon.11 = type { ptr, i64, i64, [7 x i8], i8 }
%struct.Exid_s = type { %struct.dtlink_s_, i64, i64, i64, i64, ptr, ptr, [32 x i8] }
%struct.dtlink_s_ = type { ptr, %union.anon.12 }
%union.anon.12 = type { ptr }

; Function Attrs: nounwind uwtable
define internal ptr @str_ior(ptr noundef %0, ptr noundef %1, ptr noundef %2) #0 {
  %4 = alloca ptr, align 8
  %5 = alloca ptr, align 8
  %6 = alloca ptr, align 8
  %7 = alloca ptr, align 8
  %8 = alloca i64, align 8
  %9 = alloca ptr, align 8
  %10 = alloca ptr, align 8
  %11 = alloca ptr, align 8
  %12 = alloca i32, align 4
  %13 = alloca i64, align 8
  %14 = alloca ptr, align 8
  %15 = alloca ptr, align 8
  store ptr %0, ptr %5, align 8, !tbaa !3
  store ptr %1, ptr %6, align 8, !tbaa !42
  store ptr %2, ptr %7, align 8, !tbaa !42
  call void @llvm.lifetime.start.p0(i64 8, ptr %8) #15
  store i64 1, ptr %8, align 8, !tbaa !45
  call void @llvm.lifetime.start.p0(i64 8, ptr %9) #15
  %16 = load ptr, ptr %6, align 8, !tbaa !42
  store ptr %16, ptr %9, align 8, !tbaa !42
  br label %17

17:                                               ; preds = %35, %3
  %18 = load ptr, ptr %9, align 8, !tbaa !42
  %19 = load i8, ptr %18, align 1, !tbaa !11
  %20 = sext i8 %19 to i32
  %21 = icmp ne i32 %20, 0
  br i1 %21, label %23, label %22

22:                                               ; preds = %17
  call void @llvm.lifetime.end.p0(i64 8, ptr %9) #15
  br label %38

23:                                               ; preds = %17
  %24 = load ptr, ptr %9, align 8, !tbaa !42
  %25 = getelementptr inbounds i8, ptr %24, i64 1
  %26 = load ptr, ptr %9, align 8, !tbaa !42
  %27 = load i8, ptr %26, align 1, !tbaa !11
  %28 = sext i8 %27 to i32
  %29 = call ptr @strchr(ptr noundef %25, i32 noundef %28) #18
  %30 = icmp eq ptr %29, null
  br i1 %30, label %31, label %34

31:                                               ; preds = %23
  %32 = load i64, ptr %8, align 8, !tbaa !45
  %33 = add i64 %32, 1
  store i64 %33, ptr %8, align 8, !tbaa !45
  br label %34

34:                                               ; preds = %31, %23
  br label %35

35:                                               ; preds = %34
  %36 = load ptr, ptr %9, align 8, !tbaa !42
  %37 = getelementptr inbounds nuw i8, ptr %36, i32 1
  store ptr %37, ptr %9, align 8, !tbaa !42
  br label %17, !llvm.loop !106

38:                                               ; preds = %22
  call void @llvm.lifetime.start.p0(i64 8, ptr %10) #15
  %39 = load ptr, ptr %7, align 8, !tbaa !42
  store ptr %39, ptr %10, align 8, !tbaa !42
  br label %40

40:                                               ; preds = %65, %38
  %41 = load ptr, ptr %10, align 8, !tbaa !42
  %42 = load i8, ptr %41, align 1, !tbaa !11
  %43 = sext i8 %42 to i32
  %44 = icmp ne i32 %43, 0
  br i1 %44, label %46, label %45

45:                                               ; preds = %40
  call void @llvm.lifetime.end.p0(i64 8, ptr %10) #15
  br label %68

46:                                               ; preds = %40
  %47 = load ptr, ptr %6, align 8, !tbaa !42
  %48 = load ptr, ptr %10, align 8, !tbaa !42
  %49 = load i8, ptr %48, align 1, !tbaa !11
  %50 = sext i8 %49 to i32
  %51 = call ptr @strchr(ptr noundef %47, i32 noundef %50) #18
  %52 = icmp eq ptr %51, null
  br i1 %52, label %53, label %64

53:                                               ; preds = %46
  %54 = load ptr, ptr %10, align 8, !tbaa !42
  %55 = getelementptr inbounds i8, ptr %54, i64 1
  %56 = load ptr, ptr %10, align 8, !tbaa !42
  %57 = load i8, ptr %56, align 1, !tbaa !11
  %58 = sext i8 %57 to i32
  %59 = call ptr @strchr(ptr noundef %55, i32 noundef %58) #18
  %60 = icmp eq ptr %59, null
  br i1 %60, label %61, label %64

61:                                               ; preds = %53
  %62 = load i64, ptr %8, align 8, !tbaa !45
  %63 = add i64 %62, 1
  store i64 %63, ptr %8, align 8, !tbaa !45
  br label %64

64:                                               ; preds = %61, %53, %46
  br label %65

65:                                               ; preds = %64
  %66 = load ptr, ptr %10, align 8, !tbaa !42
  %67 = getelementptr inbounds nuw i8, ptr %66, i32 1
  store ptr %67, ptr %10, align 8, !tbaa !42
  br label %40, !llvm.loop !107

68:                                               ; preds = %45
  call void @llvm.lifetime.start.p0(i64 8, ptr %11) #15
  %69 = load ptr, ptr %5, align 8, !tbaa !3
  %70 = getelementptr inbounds nuw %struct.Expr_s, ptr %69, i32 0, i32 4
  %71 = load ptr, ptr %70, align 8, !tbaa !74
  %72 = load i64, ptr %8, align 8, !tbaa !45
  %73 = call ptr @vmalloc(ptr noundef %71, i64 noundef %72)
  store ptr %73, ptr %11, align 8, !tbaa !42
  %74 = load ptr, ptr %11, align 8, !tbaa !42
  %75 = icmp eq ptr %74, null
  br i1 %75, label %76, label %78

76:                                               ; preds = %68
  %77 = call ptr @exnospace()
  store ptr %77, ptr %4, align 8
  store i32 1, ptr %12, align 4
  br label %146

78:                                               ; preds = %68
  call void @llvm.lifetime.start.p0(i64 8, ptr %13) #15
  store i64 0, ptr %13, align 8, !tbaa !45
  call void @llvm.lifetime.start.p0(i64 8, ptr %14) #15
  %79 = load ptr, ptr %6, align 8, !tbaa !42
  store ptr %79, ptr %14, align 8, !tbaa !42
  br label %80

80:                                               ; preds = %103, %78
  %81 = load ptr, ptr %14, align 8, !tbaa !42
  %82 = load i8, ptr %81, align 1, !tbaa !11
  %83 = sext i8 %82 to i32
  %84 = icmp ne i32 %83, 0
  br i1 %84, label %86, label %85

85:                                               ; preds = %80
  store i32 8, ptr %12, align 4
  call void @llvm.lifetime.end.p0(i64 8, ptr %14) #15
  br label %106

86:                                               ; preds = %80
  %87 = load ptr, ptr %14, align 8, !tbaa !42
  %88 = getelementptr inbounds i8, ptr %87, i64 1
  %89 = load ptr, ptr %14, align 8, !tbaa !42
  %90 = load i8, ptr %89, align 1, !tbaa !11
  %91 = sext i8 %90 to i32
  %92 = call ptr @strchr(ptr noundef %88, i32 noundef %91) #18
  %93 = icmp eq ptr %92, null
  br i1 %93, label %94, label %102

94:                                               ; preds = %86
  %95 = load ptr, ptr %14, align 8, !tbaa !42
  %96 = load i8, ptr %95, align 1, !tbaa !11
  %97 = load ptr, ptr %11, align 8, !tbaa !42
  %98 = load i64, ptr %13, align 8, !tbaa !45
  %99 = getelementptr inbounds nuw i8, ptr %97, i64 %98
  store i8 %96, ptr %99, align 1, !tbaa !11
  %100 = load i64, ptr %13, align 8, !tbaa !45
  %101 = add i64 %100, 1
  store i64 %101, ptr %13, align 8, !tbaa !45
  br label %102

102:                                              ; preds = %94, %86
  br label %103

103:                                              ; preds = %102
  %104 = load ptr, ptr %14, align 8, !tbaa !42
  %105 = getelementptr inbounds nuw i8, ptr %104, i32 1
  store ptr %105, ptr %14, align 8, !tbaa !42
  br label %80, !llvm.loop !108

106:                                              ; preds = %85
  call void @llvm.lifetime.start.p0(i64 8, ptr %15) #15
  %107 = load ptr, ptr %7, align 8, !tbaa !42
  store ptr %107, ptr %15, align 8, !tbaa !42
  br label %108

108:                                              ; preds = %138, %106
  %109 = load ptr, ptr %15, align 8, !tbaa !42
  %110 = load i8, ptr %109, align 1, !tbaa !11
  %111 = sext i8 %110 to i32
  %112 = icmp ne i32 %111, 0
  br i1 %112, label %114, label %113

113:                                              ; preds = %108
  store i32 11, ptr %12, align 4
  call void @llvm.lifetime.end.p0(i64 8, ptr %15) #15
  br label %141

114:                                              ; preds = %108
  %115 = load ptr, ptr %6, align 8, !tbaa !42
  %116 = load ptr, ptr %15, align 8, !tbaa !42
  %117 = load i8, ptr %116, align 1, !tbaa !11
  %118 = sext i8 %117 to i32
  %119 = call ptr @strchr(ptr noundef %115, i32 noundef %118) #18
  %120 = icmp eq ptr %119, null
  br i1 %120, label %121, label %137

121:                                              ; preds = %114
  %122 = load ptr, ptr %15, align 8, !tbaa !42
  %123 = getelementptr inbounds i8, ptr %122, i64 1
  %124 = load ptr, ptr %15, align 8, !tbaa !42
  %125 = load i8, ptr %124, align 1, !tbaa !11
  %126 = sext i8 %125 to i32
  %127 = call ptr @strchr(ptr noundef %123, i32 noundef %126) #18
  %128 = icmp eq ptr %127, null
  br i1 %128, label %129, label %137

129:                                              ; preds = %121
  %130 = load ptr, ptr %15, align 8, !tbaa !42
  %131 = load i8, ptr %130, align 1, !tbaa !11
  %132 = load ptr, ptr %11, align 8, !tbaa !42
  %133 = load i64, ptr %13, align 8, !tbaa !45
  %134 = getelementptr inbounds nuw i8, ptr %132, i64 %133
  store i8 %131, ptr %134, align 1, !tbaa !11
  %135 = load i64, ptr %13, align 8, !tbaa !45
  %136 = add i64 %135, 1
  store i64 %136, ptr %13, align 8, !tbaa !45
  br label %137

137:                                              ; preds = %129, %121, %114
  br label %138

138:                                              ; preds = %137
  %139 = load ptr, ptr %15, align 8, !tbaa !42
  %140 = getelementptr inbounds nuw i8, ptr %139, i32 1
  store ptr %140, ptr %15, align 8, !tbaa !42
  br label %108, !llvm.loop !109

141:                                              ; preds = %113
  %142 = load ptr, ptr %11, align 8, !tbaa !42
  %143 = load i64, ptr %13, align 8, !tbaa !45
  %144 = getelementptr inbounds nuw i8, ptr %142, i64 %143
  store i8 0, ptr %144, align 1, !tbaa !11
  %145 = load ptr, ptr %11, align 8, !tbaa !42
  store ptr %145, ptr %4, align 8
  store i32 1, ptr %12, align 4
  call void @llvm.lifetime.end.p0(i64 8, ptr %13) #15
  br label %146

146:                                              ; preds = %141, %76
  call void @llvm.lifetime.end.p0(i64 8, ptr %11) #15
  call void @llvm.lifetime.end.p0(i64 8, ptr %8) #15
  %147 = load ptr, ptr %4, align 8
  ret ptr %147
}