; Function Attrs: nounwind uwtable
define internal fastcc ptr @str_ior(ptr noundef readonly captures(none) %0, ptr noundef readonly %1, ptr noundef readonly %2) unnamed_addr #0 {
  %4 = load i8, ptr %1, align 1, !tbaa !3
  %.not60 = icmp eq i8 %4, 0
  br i1 %.not60, label %.preheader59, label %.lr.ph

.preheader59:                                     ; preds = %.lr.ph, %3
  %.045.lcssa = phi i64 [ 1, %3 ], [ %spec.select, %.lr.ph ]
  %5 = load i8, ptr %2, align 1, !tbaa !3
  %.not5463 = icmp eq i8 %5, 0
  br i1 %.not5463, label %._crit_edge, label %.lr.ph66

.lr.ph:                                           ; preds = %3, %.lr.ph
  %6 = phi i8 [ %12, %.lr.ph ], [ %4, %3 ]
  %.04462 = phi ptr [ %8, %.lr.ph ], [ %1, %3 ]
  %.04561 = phi i64 [ %spec.select, %.lr.ph ], [ 1, %3 ]
  %7 = sext i8 %6 to i32
  %8 = getelementptr inbounds nuw i8, ptr %.04462, i64 1
  %9 = tail call ptr @strchr(ptr noundef nonnull dereferenceable(1) %8, i32 noundef %7) #30
  %10 = icmp eq ptr %9, null
  %11 = zext i1 %10 to i64
  %spec.select = add i64 %.04561, %11
  %12 = load i8, ptr %8, align 1, !tbaa !3
  %.not = icmp eq i8 %12, 0
  br i1 %.not, label %.preheader59, label %.lr.ph, !llvm.loop !97

._crit_edge:                                      ; preds = %26, %.preheader59
  %.247.lcssa = phi i64 [ %.045.lcssa, %.preheader59 ], [ %.348, %26 ]
  %13 = getelementptr inbounds nuw i8, ptr %0, i64 104
  %14 = load ptr, ptr %13, align 8, !tbaa !67
  %15 = tail call ptr @vmalloc(ptr noundef %14, i64 noundef %.247.lcssa) #25
  %16 = icmp eq ptr %15, null
  br i1 %16, label %29, label %.preheader58

.preheader58:                                     ; preds = %._crit_edge
  %17 = load i8, ptr %1, align 1, !tbaa !3
  %.not5568 = icmp eq i8 %17, 0
  br i1 %.not5568, label %.preheader, label %.lr.ph71

.lr.ph66:                                         ; preds = %.preheader59, %26
  %.in = phi i8 [ %28, %26 ], [ %5, %.preheader59 ]
  %.04365 = phi ptr [ %27, %26 ], [ %2, %.preheader59 ]
  %.24764 = phi i64 [ %.348, %26 ], [ %.045.lcssa, %.preheader59 ]
  %18 = sext i8 %.in to i32
  %19 = tail call ptr @strchr(ptr noundef nonnull dereferenceable(1) %1, i32 noundef %18) #30
  %20 = icmp eq ptr %19, null
  br i1 %20, label %21, label %26

21:                                               ; preds = %.lr.ph66
  %22 = getelementptr inbounds nuw i8, ptr %.04365, i64 1
  %23 = tail call ptr @strchr(ptr noundef nonnull dereferenceable(1) %22, i32 noundef %18) #30
  %24 = icmp eq ptr %23, null
  %25 = zext i1 %24 to i64
  %spec.select57 = add i64 %.24764, %25
  br label %26

26:                                               ; preds = %21, %.lr.ph66
  %.348 = phi i64 [ %.24764, %.lr.ph66 ], [ %spec.select57, %21 ]
  %27 = getelementptr inbounds nuw i8, ptr %.04365, i64 1
  %28 = load i8, ptr %27, align 1, !tbaa !3
  %.not54 = icmp eq i8 %28, 0
  br i1 %.not54, label %._crit_edge, label %.lr.ph66, !llvm.loop !98

29:                                               ; preds = %._crit_edge
  %30 = tail call ptr @exnospace() #25
  br label %57

.preheader:                                       ; preds = %40, %.preheader58
  %.041.lcssa = phi i64 [ 0, %.preheader58 ], [ %.1, %40 ]
  %31 = load i8, ptr %2, align 1, !tbaa !3
  %.not5673 = icmp eq i8 %31, 0
  br i1 %.not5673, label %._crit_edge77, label %.lr.ph76

.lr.ph71:                                         ; preds = %.preheader58, %40
  %32 = phi i8 [ %41, %40 ], [ %17, %.preheader58 ]
  %.04070 = phi ptr [ %34, %40 ], [ %1, %.preheader58 ]
  %.04169 = phi i64 [ %.1, %40 ], [ 0, %.preheader58 ]
  %33 = sext i8 %32 to i32
  %34 = getelementptr inbounds nuw i8, ptr %.04070, i64 1
  %35 = tail call ptr @strchr(ptr noundef nonnull dereferenceable(1) %34, i32 noundef %33) #30
  %36 = icmp eq ptr %35, null
  br i1 %36, label %37, label %40

37:                                               ; preds = %.lr.ph71
  %38 = getelementptr inbounds nuw i8, ptr %15, i64 %.04169
  store i8 %32, ptr %38, align 1, !tbaa !3
  %39 = add i64 %.04169, 1
  br label %40

40:                                               ; preds = %.lr.ph71, %37
  %.1 = phi i64 [ %39, %37 ], [ %.04169, %.lr.ph71 ]
  %41 = load i8, ptr %34, align 1, !tbaa !3
  %.not55 = icmp eq i8 %41, 0
  br i1 %.not55, label %.preheader, label %.lr.ph71, !llvm.loop !99

._crit_edge77:                                    ; preds = %54, %.preheader
  %.2.lcssa = phi i64 [ %.041.lcssa, %.preheader ], [ %.3, %54 ]
  %42 = getelementptr inbounds nuw i8, ptr %15, i64 %.2.lcssa
  store i8 0, ptr %42, align 1, !tbaa !3
  br label %57

.lr.ph76:                                         ; preds = %.preheader, %54
  %43 = phi i8 [ %56, %54 ], [ %31, %.preheader ]
  %.075 = phi ptr [ %55, %54 ], [ %2, %.preheader ]
  %.274 = phi i64 [ %.3, %54 ], [ %.041.lcssa, %.preheader ]
  %44 = sext i8 %43 to i32
  %45 = tail call ptr @strchr(ptr noundef nonnull dereferenceable(1) %1, i32 noundef %44) #30
  %46 = icmp eq ptr %45, null
  br i1 %46, label %47, label %54

47:                                               ; preds = %.lr.ph76
  %48 = getelementptr inbounds nuw i8, ptr %.075, i64 1
  %49 = tail call ptr @strchr(ptr noundef nonnull dereferenceable(1) %48, i32 noundef %44) #30
  %50 = icmp eq ptr %49, null
  br i1 %50, label %51, label %54

51:                                               ; preds = %47
  %52 = getelementptr inbounds nuw i8, ptr %15, i64 %.274
  store i8 %43, ptr %52, align 1, !tbaa !3
  %53 = add i64 %.274, 1
  br label %54

54:                                               ; preds = %.lr.ph76, %47, %51
  %.3 = phi i64 [ %53, %51 ], [ %.274, %47 ], [ %.274, %.lr.ph76 ]
  %55 = getelementptr inbounds nuw i8, ptr %.075, i64 1
  %56 = load i8, ptr %55, align 1, !tbaa !3
  %.not56 = icmp eq i8 %56, 0
  br i1 %.not56, label %._crit_edge77, label %.lr.ph76, !llvm.loop !100

57:                                               ; preds = %._crit_edge77, %29
  %.042 = phi ptr [ %30, %29 ], [ %15, %._crit_edge77 ]
  ret ptr %.042
}